; ModuleID = 'bench/abc/original/decMan.ll'
source_filename = "bench/abc/original/decMan.ll"
target datalayout = "e-m:e-p270:32:32-p271:32:32-p272:64:64-i64:64-i128:128-f80:128-n8:16:32:64-S128"
target triple = "x86_64-pc-linux-gnu"

; Function Attrs: nounwind uwtable
define noundef ptr @Dec_ManStart() local_unnamed_addr #0 {
  %1 = tail call noalias dereferenceable_or_null(56) ptr @malloc(i64 noundef 56) #4
  %2 = tail call ptr (...) @Mvc_ManagerStart() #5
  store ptr %2, ptr %1, align 8, !tbaa !3
  %3 = tail call noalias dereferenceable_or_null(16) ptr @malloc(i64 noundef 16) #4
  %4 = getelementptr inbounds nuw i8, ptr %3, i64 4
  store i32 0, ptr %4, align 4, !tbaa !11
  store i32 16, ptr %3, align 8, !tbaa !15
  %5 = tail call noalias dereferenceable_or_null(64) ptr @malloc(i64 noundef 64) #4
  %6 = getelementptr inbounds nuw i8, ptr %3, i64 8
  store ptr %5, ptr %6, align 8, !tbaa !16
  %7 = getelementptr inbounds nuw i8, ptr %1, i64 8
  store ptr %3, ptr %7, align 8, !tbaa !17
  %8 = tail call noalias dereferenceable_or_null(16) ptr @malloc(i64 noundef 16) #4
  %9 = getelementptr inbounds nuw i8, ptr %8, i64 4
  store i32 0, ptr %9, align 4, !tbaa !11
  store i32 16, ptr %8, align 8, !tbaa !15
  %10 = tail call noalias dereferenceable_or_null(64) ptr @malloc(i64 noundef 64) #4
  %11 = getelementptr inbounds nuw i8, ptr %8, i64 8
  store ptr %10, ptr %11, align 8, !tbaa !16
  %12 = getelementptr inbounds nuw i8, ptr %1, i64 16
  store ptr %8, ptr %12, align 8, !tbaa !18
  %13 = getelementptr inbounds nuw i8, ptr %1, i64 24
  %14 = getelementptr inbounds nuw i8, ptr %1, i64 32
  %15 = getelementptr inbounds nuw i8, ptr %1, i64 40
  %16 = getelementptr inbounds nuw i8, ptr %1, i64 48
  tail call void @Extra_Truth4VarNPN(ptr noundef nonnull %13, ptr noundef nonnull %14, ptr noundef nonnull %15, ptr noundef nonnull %16) #5
  ret ptr %1
}

; Function Attrs: mustprogress nofree nounwind willreturn allockind("alloc,uninitialized") allocsize(0) memory(inaccessiblemem: readwrite)
declare noalias noundef ptr @malloc(i64 noundef) local_unnamed_addr #1

declare ptr @Mvc_ManagerStart(...) local_unnamed_addr #2

declare void @Extra_Truth4VarNPN(ptr noundef, ptr noundef, ptr noundef, ptr noundef) local_unnamed_addr #2

; Function Attrs: nounwind uwtable
define void @Dec_ManStop(ptr noundef captures(none) %0) local_unnamed_addr #0 {
  %2 = load ptr, ptr %0, align 8, !tbaa !3
  tail call void @Mvc_ManagerFree(ptr noundef %2) #5
  %3 = getelementptr inbounds nuw i8, ptr %0, i64 8
  %4 = load ptr, ptr %3, align 8, !tbaa !17
  %5 = getelementptr inbounds nuw i8, ptr %4, i64 8
  %6 = load ptr, ptr %5, align 8, !tbaa !16
  %.not.i = icmp eq ptr %6, null
  br i1 %.not.i, label %Vec_IntFree.exit, label %7

7:                                                ; preds = %1
  tail call void @free(ptr noundef nonnull %6) #5
  br label %Vec_IntFree.exit

Vec_IntFree.exit:                                 ; preds = %1, %7
  tail call void @free(ptr noundef nonnull %4) #5
  %8 = getelementptr inbounds nuw i8, ptr %0, i64 16
  %9 = load ptr, ptr %8, align 8, !tbaa !18
  %10 = getelementptr inbounds nuw i8, ptr %9, i64 8
  %11 = load ptr, ptr %10, align 8, !tbaa !16
  %.not.i23 = icmp eq ptr %11, null
  br i1 %.not.i23, label %Vec_IntFree.exit24, label %12

12:                                               ; preds = %Vec_IntFree.exit
  tail call void @free(ptr noundef nonnull %11) #5
  br label %Vec_IntFree.exit24

Vec_IntFree.exit24:                               ; preds = %Vec_IntFree.exit, %12
  tail call void @free(ptr noundef nonnull %9) #5
  %13 = getelementptr inbounds nuw i8, ptr %0, i64 24
  %14 = load ptr, ptr %13, align 8, !tbaa !19
  %.not = icmp eq ptr %14, null
  br i1 %.not, label %16, label %15

15:                                               ; preds = %Vec_IntFree.exit24
  tail call void @free(ptr noundef nonnull %14) #5
  store ptr null, ptr %13, align 8, !tbaa !19
  br label %16

16:                                               ; preds = %Vec_IntFree.exit24, %15
  %17 = getelementptr inbounds nuw i8, ptr %0, i64 32
  %18 = load ptr, ptr %17, align 8, !tbaa !20
  %.not20 = icmp eq ptr %18, null
  br i1 %.not20, label %20, label %19

19:                                               ; preds = %16
  tail call void @free(ptr noundef nonnull %18) #5
  store ptr null, ptr %17, align 8, !tbaa !20
  br label %20

20:                                               ; preds = %16, %19
  %21 = getelementptr inbounds nuw i8, ptr %0, i64 40
  %22 = load ptr, ptr %21, align 8, !tbaa !21
  %.not21 = icmp eq ptr %22, null
  br i1 %.not21, label %24, label %23

23:                                               ; preds = %20
  tail call void @free(ptr noundef nonnull %22) #5
  store ptr null, ptr %21, align 8, !tbaa !21
  br label %24

24:                                               ; preds = %20, %23
  %25 = getelementptr inbounds nuw i8, ptr %0, i64 48
  %26 = load ptr, ptr %25, align 8, !tbaa !22
  %.not22 = icmp eq ptr %26, null
  br i1 %.not22, label %28, label %27

27:                                               ; preds = %24
  tail call void @free(ptr noundef nonnull %26) #5
  br label %28

28:                                               ; preds = %27, %24
  tail call void @free(ptr noundef nonnull %0) #5
  ret void
}

declare void @Mvc_ManagerFree(ptr noundef) local_unnamed_addr #2

; Function Attrs: mustprogress nounwind willreturn allockind("free") memory(argmem: readwrite, inaccessiblemem: readwrite)
declare void @free(ptr allocptr noundef captures(none)) local_unnamed_addr #3


!llvm.module.flags = !{!0, !1, !2}

!0 = !{i32 1, !"wchar_size", i32 4}
!1 = !{i32 8, !"PIC Level", i32 2}
!2 = !{i32 7, !"uwtable", i32 2}
!3 = !{!4, !5, i64 0}
!4 = !{!"Dec_Man_t_", !5, i64 0, !8, i64 8, !8, i64 16, !9, i64 24, !10, i64 32, !10, i64 40, !10, i64 48}
!5 = !{!"any pointer", !6, i64 0}
!6 = !{!"omnipotent char", !7, i64 0}
!7 = !{!"Simple C/C++ TBAA"}
!8 = !{!"p1 _ZTS10Vec_Int_t_", !5, i64 0}
!9 = !{!"p1 short", !5, i64 0}
!10 = !{!"p1 omnipotent char", !5, i64 0}
!11 = !{!12, !13, i64 4}
!12 = !{!"Vec_Int_t_", !13, i64 0, !13, i64 4, !14, i64 8}
!13 = !{!"int", !6, i64 0}
!14 = !{!"p1 int", !5, i64 0}
!15 = !{!12, !13, i64 0}
!16 = !{!12, !14, i64 8}
!17 = !{!4, !8, i64 8}
!18 = !{!4, !8, i64 16}
!19 = !{!4, !9, i64 24}
!20 = !{!4, !10, i64 32}
!21 = !{!4, !10, i64 40}
!22 = !{!4, !10, i64 48}
